; Function Attrs: inlinehint mustprogress nounwind uwtable
define internal void @_ZN5arrow7compute8internal12_GLOBAL__N_114NullHashKernelINS2_12UniqueActionELb0EED2Ev(ptr noundef nonnull align 8 captures(none) dereferenceable(112) initializes((0, 8)) %0) unnamed_addr #3 align 2 personality ptr @__gxx_personality_v0 {
  store ptr getelementptr inbounds nuw inrange(-16, 64) (i8, ptr @_ZTVN5arrow7compute8internal12_GLOBAL__N_114NullHashKernelINS2_12UniqueActionELb0EEE, i64 16), ptr %0, align 8, !tbaa !79
  %2 = getelementptr inbounds nuw i8, ptr %0, i64 96
  %.val = load ptr, ptr %2, align 8, !tbaa !81
  %.not.i.i.i = icmp eq ptr %.val, null
  br i1 %.not.i.i.i, label %_ZN5arrow7compute8internal12_GLOBAL__N_110ActionBaseD2Ev.exit, label %3

3:                                                ; preds = %1
  %4 = getelementptr inbounds nuw i8, ptr %.val, i64 8
  %5 = load atomic i64, ptr %4 acquire, align 8
  %6 = icmp eq i64 %5, 4294967297
  %7 = trunc i64 %5 to i32
  br i1 %6, label %8, label %16

8:                                                ; preds = %3
  store i32 0, ptr %4, align 8, !tbaa !76
  %9 = getelementptr inbounds nuw i8, ptr %.val, i64 12
  store i32 0, ptr %9, align 4, !tbaa !78
  %10 = load ptr, ptr %.val, align 8, !tbaa !79
  %11 = getelementptr inbounds nuw i8, ptr %10, i64 16
  %12 = load ptr, ptr %11, align 8
  tail call void %12(ptr noundef nonnull align 8 dereferenceable(16) %.val) #33
  %13 = load ptr, ptr %.val, align 8, !tbaa !79
  %14 = getelementptr inbounds nuw i8, ptr %13, i64 24
  %15 = load ptr, ptr %14, align 8
  tail call void %15(ptr noundef nonnull align 8 dereferenceable(16) %.val) #33
  br label %_ZN5arrow7compute8internal12_GLOBAL__N_110ActionBaseD2Ev.exit

16:                                               ; preds = %3
  %17 = load i8, ptr @__libc_single_threaded, align 1, !tbaa !39
  %.not.i.i.i.i = icmp eq i8 %17, 0
  br i1 %.not.i.i.i.i, label %20, label %18

18:                                               ; preds = %16
  %19 = add nsw i32 %7, -1
  store i32 %19, ptr %4, align 4, !tbaa !115
  br label %_ZN9__gnu_cxx27__exchange_and_add_dispatchEPii.exit.i.i.i.i

20:                                               ; preds = %16
  %21 = atomicrmw volatile add ptr %4, i32 -1 acq_rel, align 4
  br label %_ZN9__gnu_cxx27__exchange_and_add_dispatchEPii.exit.i.i.i.i

_ZN9__gnu_cxx27__exchange_and_add_dispatchEPii.exit.i.i.i.i: ; preds = %20, %18
  %.0.i.i.i.i.i = phi i32 [ %7, %18 ], [ %21, %20 ]
  %22 = icmp eq i32 %.0.i.i.i.i.i, 1
  br i1 %22, label %23, label %_ZN5arrow7compute8internal12_GLOBAL__N_110ActionBaseD2Ev.exit, !prof !127

23:                                               ; preds = %_ZN9__gnu_cxx27__exchange_and_add_dispatchEPii.exit.i.i.i.i
  tail call void @_ZNSt16_Sp_counted_baseILN9__gnu_cxx12_Lock_policyE2EE24_M_release_last_use_coldEv(ptr noundef nonnull align 8 dereferenceable(16) %.val) #33
  br label %_ZN5arrow7compute8internal12_GLOBAL__N_110ActionBaseD2Ev.exit

_ZN5arrow7compute8internal12_GLOBAL__N_110ActionBaseD2Ev.exit: ; preds = %1, %8, %_ZN9__gnu_cxx27__exchange_and_add_dispatchEPii.exit.i.i.i.i, %23
  %24 = getelementptr inbounds nuw i8, ptr %0, i64 72
  %25 = load ptr, ptr %24, align 8, !tbaa !81
  %.not.i.i = icmp eq ptr %25, null
  br i1 %.not.i.i, label %_ZNSt12__shared_ptrIN5arrow8DataTypeELN9__gnu_cxx12_Lock_policyE2EED2Ev.exit, label %26

26:                                               ; preds = %_ZN5arrow7compute8internal12_GLOBAL__N_110ActionBaseD2Ev.exit
  %27 = getelementptr inbounds nuw i8, ptr %25, i64 8
  %28 = load atomic i64, ptr %27 acquire, align 8
  %29 = icmp eq i64 %28, 4294967297
  %30 = trunc i64 %28 to i32
  br i1 %29, label %31, label %39

31:                                               ; preds = %26
  store i32 0, ptr %27, align 8, !tbaa !76
  %32 = getelementptr inbounds nuw i8, ptr %25, i64 12
  store i32 0, ptr %32, align 4, !tbaa !78
  %33 = load ptr, ptr %25, align 8, !tbaa !79
  %34 = getelementptr inbounds nuw i8, ptr %33, i64 16
  %35 = load ptr, ptr %34, align 8
  tail call void %35(ptr noundef nonnull align 8 dereferenceable(16) %25) #33
  %36 = load ptr, ptr %25, align 8, !tbaa !79
  %37 = getelementptr inbounds nuw i8, ptr %36, i64 24
  %38 = load ptr, ptr %37, align 8
  tail call void %38(ptr noundef nonnull align 8 dereferenceable(16) %25) #33
  br label %_ZNSt12__shared_ptrIN5arrow8DataTypeELN9__gnu_cxx12_Lock_policyE2EED2Ev.exit

39:                                               ; preds = %26
  %40 = load i8, ptr @__libc_single_threaded, align 1, !tbaa !39
  %.not.i.i.i1 = icmp eq i8 %40, 0
  br i1 %.not.i.i.i1, label %43, label %41

41:                                               ; preds = %39
  %42 = add nsw i32 %30, -1
  store i32 %42, ptr %27, align 4, !tbaa !115
  br label %_ZN9__gnu_cxx27__exchange_and_add_dispatchEPii.exit.i.i.i

43:                                               ; preds = %39
  %44 = atomicrmw volatile add ptr %27, i32 -1 acq_rel, align 4
  br label %_ZN9__gnu_cxx27__exchange_and_add_dispatchEPii.exit.i.i.i

_ZN9__gnu_cxx27__exchange_and_add_dispatchEPii.exit.i.i.i: ; preds = %43, %41
  %.0.i.i.i.i = phi i32 [ %30, %41 ], [ %44, %43 ]
  %45 = icmp eq i32 %.0.i.i.i.i, 1
  br i1 %45, label %46, label %_ZNSt12__shared_ptrIN5arrow8DataTypeELN9__gnu_cxx12_Lock_policyE2EED2Ev.exit, !prof !127

46:                                               ; preds = %_ZN9__gnu_cxx27__exchange_and_add_dispatchEPii.exit.i.i.i
  tail call void @_ZNSt16_Sp_counted_baseILN9__gnu_cxx12_Lock_policyE2EE24_M_release_last_use_coldEv(ptr noundef nonnull align 8 dereferenceable(16) %25) #33
  br label %_ZNSt12__shared_ptrIN5arrow8DataTypeELN9__gnu_cxx12_Lock_policyE2EED2Ev.exit

_ZNSt12__shared_ptrIN5arrow8DataTypeELN9__gnu_cxx12_Lock_policyE2EED2Ev.exit: ; preds = %_ZN5arrow7compute8internal12_GLOBAL__N_110ActionBaseD2Ev.exit, %31, %_ZN9__gnu_cxx27__exchange_and_add_dispatchEPii.exit.i.i.i, %46
  ret void
}